target datalayout = "e-m:e-p270:32:32-p271:32:32-p272:64:64-i64:64-i128:128-f80:128-n8:16:32:64-S128"
target triple = "x86_64-pc-linux-gnu"

%struct.pbl_node_t = type { i32, ptr, ptr, ptr, ptr, ptr, ptr, i32 }
%struct.pbl_enum_descriptor_t = type { %struct.pbl_node_t, ptr, ptr }

; Function Attrs: null_pointer_is_valid sspstrong uwtable
define hidden ptr @pbl_enum_descriptor_value(ptr noundef %0, i32 noundef %1) #0 {
  %3 = alloca ptr, align 8
  %4 = alloca i32, align 4
  store ptr %0, ptr %3, align 8
  store i32 %1, ptr %4, align 4
  %5 = load ptr, ptr %3, align 8
  %6 = icmp ne ptr %5, null
  br i1 %6, label %7, label %18

7:                                                ; preds = %2
  %8 = load ptr, ptr %3, align 8
  %9 = getelementptr inbounds nuw %struct.pbl_enum_descriptor_t, ptr %8, i32 0, i32 1
  %10 = load ptr, ptr %9, align 8
  %11 = icmp ne ptr %10, null
  br i1 %11, label %12, label %18

12:                                               ; preds = %7
  %13 = load ptr, ptr %3, align 8
  %14 = getelementptr inbounds nuw %struct.pbl_enum_descriptor_t, ptr %13, i32 0, i32 1
  %15 = load ptr, ptr %14, align 8
  %16 = load i32, ptr %4, align 4
  %17 = call ptr @g_queue_peek_nth(ptr noundef %15, i32 noundef %16)
  br label %19

18:                                               ; preds = %7, %2
  br label %19

19:                                               ; preds = %18, %12
  %20 = phi ptr [ %17, %12 ], [ null, %18 ]
  ret ptr %20
}